; Function Attrs: mustprogress nounwind uwtable
define hidden void @_ZN7nmethod20set_deoptimized_doneEv(ptr noundef nonnull align 8 dereferenceable(214) %0) local_unnamed_addr #0 align 2 {
  %2 = load ptr, ptr @NMethodState_lock, align 8
  %3 = tail call noundef zeroext i1 @_ZNK5Mutex13owned_by_selfEv(ptr noundef nonnull align 8 dereferenceable(104) %2) #23
  br i1 %3, label %_ZN22ConditionalMutexLockerC2EP5MutexbNS0_18SafepointCheckFlagE.exit, label %4

4:                                                ; preds = %1
  tail call void @_ZN5Mutex28lock_without_safepoint_checkEv(ptr noundef nonnull align 8 dereferenceable(104) %2) #23
  br label %_ZN22ConditionalMutexLockerC2EP5MutexbNS0_18SafepointCheckFlagE.exit

_ZN22ConditionalMutexLockerC2EP5MutexbNS0_18SafepointCheckFlagE.exit: ; preds = %1, %4
  %5 = getelementptr inbounds i8, ptr %0, i64 213
  %6 = load volatile i8, ptr %5, align 1
  %.not = icmp eq i8 %6, 3
  br i1 %.not, label %8, label %7

7:                                                ; preds = %_ZN22ConditionalMutexLockerC2EP5MutexbNS0_18SafepointCheckFlagE.exit
  store volatile i8 3, ptr %5, align 1
  br label %8

8:                                                ; preds = %7, %_ZN22ConditionalMutexLockerC2EP5MutexbNS0_18SafepointCheckFlagE.exit
  br i1 %3, label %_ZN22ConditionalMutexLockerD2Ev.exit, label %9

9:                                                ; preds = %8
  tail call void @_ZN5Mutex6unlockEv(ptr noundef nonnull align 8 dereferenceable(104) %2) #23
  br label %_ZN22ConditionalMutexLockerD2Ev.exit

_ZN22ConditionalMutexLockerD2Ev.exit:             ; preds = %8, %9
  ret void
}